; Function Attrs: nounwind uwtable
define noalias nonnull ptr @l_Lean_Compiler_LCNF_Testing_getOutputDecls___boxed(ptr noundef %0, ptr noundef %1, ptr noundef %2, ptr noundef %3, ptr noundef %4, ptr noundef %5, ptr noundef %6) local_unnamed_addr #0 {
  %8 = getelementptr inbounds nuw i8, ptr %0, i64 16
  %9 = load ptr, ptr %8, align 8, !tbaa !7
  %10 = ptrtoint ptr %9 to i64
  %11 = and i64 %10, 1
  %.not.i29 = icmp eq i64 %11, 0
  br i1 %.not.i29, label %12, label %lean_inc.exit.i

12:                                               ; preds = %7
  %.val.i.i = load i32, ptr %9, align 4, !tbaa !9
  %13 = icmp sgt i32 %.val.i.i, 0
  br i1 %13, label %14, label %16, !prof !12

14:                                               ; preds = %12
  %15 = add nuw i32 %.val.i.i, 1
  store i32 %15, ptr %9, align 4, !tbaa !9
  br label %lean_inc.exit.i

16:                                               ; preds = %12
  %.not.i.i = icmp eq i32 %.val.i.i, 0
  br i1 %.not.i.i, label %lean_inc.exit.i, label %17

17:                                               ; preds = %16
  tail call void @lean_inc_ref_cold(ptr noundef nonnull %9) #5
  br label %lean_inc.exit.i

lean_inc.exit.i:                                  ; preds = %17, %16, %14, %7
  tail call void @lean_inc_heartbeat() #5
  %18 = tail call noalias ptr @mi_malloc_small(i64 noundef 24) #5
  %19 = icmp eq ptr %18, null
  br i1 %19, label %20, label %l_Lean_Compiler_LCNF_Testing_getOutputDecls.exit

20:                                               ; preds = %lean_inc.exit.i
  tail call void @lean_internal_panic_out_of_memory() #6
  unreachable

l_Lean_Compiler_LCNF_Testing_getOutputDecls.exit: ; preds = %lean_inc.exit.i
  %21 = getelementptr inbounds nuw i8, ptr %18, i64 4
  store i32 1, ptr %18, align 4, !tbaa !9
  store i32 131096, ptr %21, align 4
  %22 = getelementptr inbounds nuw i8, ptr %18, i64 8
  store ptr %9, ptr %22, align 8, !tbaa !7
  %23 = getelementptr inbounds nuw i8, ptr %18, i64 16
  store ptr %6, ptr %23, align 8, !tbaa !7
  %24 = ptrtoint ptr %5 to i64
  %25 = and i64 %24, 1
  %.not = icmp eq i64 %25, 0
  br i1 %.not, label %26, label %lean_dec.exit18

26:                                               ; preds = %l_Lean_Compiler_LCNF_Testing_getOutputDecls.exit
  %27 = load i32, ptr %5, align 4, !tbaa !9
  %28 = icmp sgt i32 %27, 1
  br i1 %28, label %29, label %31, !prof !12

29:                                               ; preds = %26
  %30 = add nsw i32 %27, -1
  store i32 %30, ptr %5, align 4, !tbaa !9
  br label %lean_dec.exit18

31:                                               ; preds = %26
  %.not.i = icmp eq i32 %27, 0
  br i1 %.not.i, label %lean_dec.exit18, label %32

32:                                               ; preds = %31
  tail call void @lean_dec_ref_cold(ptr noundef nonnull %5) #5
  br label %lean_dec.exit18

lean_dec.exit18:                                  ; preds = %32, %31, %29, %l_Lean_Compiler_LCNF_Testing_getOutputDecls.exit
  %33 = ptrtoint ptr %4 to i64
  %34 = and i64 %33, 1
  %.not30 = icmp eq i64 %34, 0
  br i1 %.not30, label %35, label %lean_dec.exit17

35:                                               ; preds = %lean_dec.exit18
  %36 = load i32, ptr %4, align 4, !tbaa !9
  %37 = icmp sgt i32 %36, 1
  br i1 %37, label %38, label %40, !prof !12

38:                                               ; preds = %35
  %39 = add nsw i32 %36, -1
  store i32 %39, ptr %4, align 4, !tbaa !9
  br label %lean_dec.exit17

40:                                               ; preds = %35
  %.not.i19 = icmp eq i32 %36, 0
  br i1 %.not.i19, label %lean_dec.exit17, label %41

41:                                               ; preds = %40
  tail call void @lean_dec_ref_cold(ptr noundef nonnull %4) #5
  br label %lean_dec.exit17

lean_dec.exit17:                                  ; preds = %41, %40, %38, %lean_dec.exit18
  %42 = ptrtoint ptr %3 to i64
  %43 = and i64 %42, 1
  %.not31 = icmp eq i64 %43, 0
  br i1 %.not31, label %44, label %lean_dec.exit16

44:                                               ; preds = %lean_dec.exit17
  %45 = load i32, ptr %3, align 4, !tbaa !9
  %46 = icmp sgt i32 %45, 1
  br i1 %46, label %47, label %49, !prof !12

47:                                               ; preds = %44
  %48 = add nsw i32 %45, -1
  store i32 %48, ptr %3, align 4, !tbaa !9
  br label %lean_dec.exit16

49:                                               ; preds = %44
  %.not.i21 = icmp eq i32 %45, 0
  br i1 %.not.i21, label %lean_dec.exit16, label %50

50:                                               ; preds = %49
  tail call void @lean_dec_ref_cold(ptr noundef nonnull %3) #5
  br label %lean_dec.exit16

lean_dec.exit16:                                  ; preds = %50, %49, %47, %lean_dec.exit17
  %51 = ptrtoint ptr %2 to i64
  %52 = and i64 %51, 1
  %.not32 = icmp eq i64 %52, 0
  br i1 %.not32, label %53, label %lean_dec.exit15

53:                                               ; preds = %lean_dec.exit16
  %54 = load i32, ptr %2, align 4, !tbaa !9
  %55 = icmp sgt i32 %54, 1
  br i1 %55, label %56, label %58, !prof !12

56:                                               ; preds = %53
  %57 = add nsw i32 %54, -1
  store i32 %57, ptr %2, align 4, !tbaa !9
  br label %lean_dec.exit15

58:                                               ; preds = %53
  %.not.i23 = icmp eq i32 %54, 0
  br i1 %.not.i23, label %lean_dec.exit15, label %59

59:                                               ; preds = %58
  tail call void @lean_dec_ref_cold(ptr noundef nonnull %2) #5
  br label %lean_dec.exit15

lean_dec.exit15:                                  ; preds = %59, %58, %56, %lean_dec.exit16
  %60 = ptrtoint ptr %1 to i64
  %61 = and i64 %60, 1
  %.not33 = icmp eq i64 %61, 0
  br i1 %.not33, label %62, label %lean_dec.exit14

62:                                               ; preds = %lean_dec.exit15
  %63 = load i32, ptr %1, align 4, !tbaa !9
  %64 = icmp sgt i32 %63, 1
  br i1 %64, label %65, label %67, !prof !12

65:                                               ; preds = %62
  %66 = add nsw i32 %63, -1
  store i32 %66, ptr %1, align 4, !tbaa !9
  br label %lean_dec.exit14

67:                                               ; preds = %62
  %.not.i25 = icmp eq i32 %63, 0
  br i1 %.not.i25, label %lean_dec.exit14, label %68

68:                                               ; preds = %67
  tail call void @lean_dec_ref_cold(ptr noundef nonnull %1) #5
  br label %lean_dec.exit14

lean_dec.exit14:                                  ; preds = %68, %67, %65, %lean_dec.exit15
  %69 = ptrtoint ptr %0 to i64
  %70 = and i64 %69, 1
  %.not34 = icmp eq i64 %70, 0
  br i1 %.not34, label %71, label %lean_dec.exit

71:                                               ; preds = %lean_dec.exit14
  %72 = load i32, ptr %0, align 4, !tbaa !9
  %73 = icmp sgt i32 %72, 1
  br i1 %73, label %74, label %76, !prof !12

74:                                               ; preds = %71
  %75 = add nsw i32 %72, -1
  store i32 %75, ptr %0, align 4, !tbaa !9
  br label %lean_dec.exit

76:                                               ; preds = %71
  %.not.i27 = icmp eq i32 %72, 0
  br i1 %.not.i27, label %lean_dec.exit, label %77

77:                                               ; preds = %76
  tail call void @lean_dec_ref_cold(ptr noundef nonnull %0) #5
  br label %lean_dec.exit

lean_dec.exit:                                    ; preds = %77, %76, %74, %lean_dec.exit14
  ret ptr %18
}